target datalayout = "e-m:e-p270:32:32-p271:32:32-p272:64:64-i64:64-i128:128-f80:128-n8:16:32:64-S128"
target triple = "x86_64-pc-linux-gnu"

%struct.hm_fragment_st = type { %struct.hm_header_st, ptr, ptr }
%struct.hm_header_st = type { i8, i32, i16, i32, i32, i32, i16 }
%struct.ssl_st = type { i32, i16, i16, ptr, ptr, ptr, ptr, ptr, i32, i32, ptr, ptr, i32, i32, ptr, ptr, ptr, ptr, ptr, ptr, ptr, ptr, i32, i32, [32 x i8], ptr, ptr, ptr, ptr, ptr, ptr, ptr, i64, %struct.crypto_ex_data_st, ptr, i32, i32, i32, i32, i16, ptr, i32, i64, ptr, ptr, ptr, ptr, ptr, ptr, i32, i32, ptr, ptr, i8, i8, i32 }
%struct.crypto_ex_data_st = type { ptr }
%struct.dtls1_state_st = type { i32, [256 x i8], i64, i16, i16, %struct.dtls1_bitmap_st, i16, i16, i16, [8 x i8], ptr, ptr, i32, %struct.hm_header_st, i32, %struct.timeval, i16 }
%struct.dtls1_bitmap_st = type { i64, i64 }
%struct.timeval = type { i64, i64 }
%struct.buf_mem_st = type { i64, ptr, i64 }
%struct._pitem = type { [8 x i8], ptr, ptr }

; Function Attrs: nounwind uwtable
define hidden void @dtls1_set_message_header(ptr noundef %0, i8 noundef zeroext %1, i64 noundef %2, i16 noundef zeroext %3, i64 noundef %4, i64 noundef %5) #0 {
  %7 = alloca ptr, align 8
  %8 = alloca i8, align 1
  %9 = alloca i64, align 8
  %10 = alloca i16, align 2
  %11 = alloca i64, align 8
  %12 = alloca i64, align 8
  %13 = alloca ptr, align 8
  store ptr %0, ptr %7, align 8, !tbaa !18
  store i8 %1, ptr %8, align 1, !tbaa !111
  store i64 %2, ptr %9, align 8, !tbaa !53
  store i16 %3, ptr %10, align 2, !tbaa !110
  store i64 %4, ptr %11, align 8, !tbaa !53
  store i64 %5, ptr %12, align 8, !tbaa !53
  call void @llvm.lifetime.start.p0(i64 8, ptr %13) #8
  %14 = load ptr, ptr %7, align 8, !tbaa !18
  %15 = getelementptr inbounds nuw %struct.ssl_st, ptr %14, i32 0, i32 15
  %16 = load ptr, ptr %15, align 8, !tbaa !21
  %17 = getelementptr inbounds nuw %struct.dtls1_state_st, ptr %16, i32 0, i32 13
  store ptr %17, ptr %13, align 8, !tbaa !115
  %18 = load i8, ptr %8, align 1, !tbaa !111
  %19 = load ptr, ptr %13, align 8, !tbaa !115
  %20 = getelementptr inbounds nuw %struct.hm_header_st, ptr %19, i32 0, i32 0
  store i8 %18, ptr %20, align 4, !tbaa !117
  %21 = load i64, ptr %9, align 8, !tbaa !53
  %22 = trunc i64 %21 to i32
  %23 = load ptr, ptr %13, align 8, !tbaa !115
  %24 = getelementptr inbounds nuw %struct.hm_header_st, ptr %23, i32 0, i32 1
  store i32 %22, ptr %24, align 4, !tbaa !99
  %25 = load i16, ptr %10, align 2, !tbaa !110
  %26 = load ptr, ptr %13, align 8, !tbaa !115
  %27 = getelementptr inbounds nuw %struct.hm_header_st, ptr %26, i32 0, i32 2
  store i16 %25, ptr %27, align 4, !tbaa !101
  %28 = load i64, ptr %11, align 8, !tbaa !53
  %29 = trunc i64 %28 to i32
  %30 = load ptr, ptr %13, align 8, !tbaa !115
  %31 = getelementptr inbounds nuw %struct.hm_header_st, ptr %30, i32 0, i32 3
  store i32 %29, ptr %31, align 4, !tbaa !97
  %32 = load i64, ptr %12, align 8, !tbaa !53
  %33 = trunc i64 %32 to i32
  %34 = load ptr, ptr %13, align 8, !tbaa !115
  %35 = getelementptr inbounds nuw %struct.hm_header_st, ptr %34, i32 0, i32 4
  store i32 %33, ptr %35, align 4, !tbaa !98
  call void @llvm.lifetime.end.p0(i64 8, ptr %13) #8
  ret void
}

; Function Attrs: nounwind uwtable
define internal i32 @dtls1_retransmit_message(ptr noundef %0, ptr noundef %1) #0 {
  %3 = alloca ptr, align 8
  %4 = alloca ptr, align 8
  %5 = alloca i32, align 4
  %6 = alloca i32, align 4
  store ptr %0, ptr %3, align 8, !tbaa !18
  store ptr %1, ptr %4, align 8, !tbaa !6
  call void @llvm.lifetime.start.p0(i64 4, ptr %5) #8
  store i32 1, ptr %5, align 4, !tbaa !20
  %7 = load ptr, ptr %3, align 8, !tbaa !18
  %8 = getelementptr inbounds nuw %struct.ssl_st, ptr %7, i32 0, i32 15
  %9 = load ptr, ptr %8, align 8, !tbaa !21
  %10 = getelementptr inbounds nuw %struct.dtls1_state_st, ptr %9, i32 0, i32 4
  %11 = load i16, ptr %10, align 2, !tbaa !105
  %12 = zext i16 %11 to i32
  %13 = icmp eq i32 %12, 1
  br i1 %13, label %14, label %22

14:                                               ; preds = %2
  %15 = load ptr, ptr %4, align 8, !tbaa !6
  %16 = getelementptr inbounds nuw %struct.hm_fragment_st, ptr %15, i32 0, i32 0
  %17 = getelementptr inbounds nuw %struct.hm_header_st, ptr %16, i32 0, i32 6
  %18 = load i16, ptr %17, align 8, !tbaa !106
  %19 = zext i16 %18 to i32
  %20 = icmp eq i32 %19, 0
  br i1 %20, label %21, label %22

21:                                               ; preds = %14
  store i32 0, ptr %5, align 4, !tbaa !20
  br label %22

22:                                               ; preds = %21, %14, %2
  call void @llvm.lifetime.start.p0(i64 4, ptr %6) #8
  %23 = load ptr, ptr %4, align 8, !tbaa !6
  %24 = getelementptr inbounds nuw %struct.hm_fragment_st, ptr %23, i32 0, i32 0
  %25 = getelementptr inbounds nuw %struct.hm_header_st, ptr %24, i32 0, i32 5
  %26 = load i32, ptr %25, align 4, !tbaa !107
  %27 = icmp ne i32 %26, 0
  br i1 %27, label %28, label %32

28:                                               ; preds = %22
  %29 = load ptr, ptr %3, align 8, !tbaa !18
  %30 = load i32, ptr %5, align 4, !tbaa !20
  %31 = call i32 @dtls1_write_change_cipher_spec(ptr noundef %29, i32 noundef %30)
  store i32 %31, ptr %6, align 4, !tbaa !20
  br label %76

32:                                               ; preds = %22
  %33 = load ptr, ptr %3, align 8, !tbaa !18
  %34 = getelementptr inbounds nuw %struct.ssl_st, ptr %33, i32 0, i32 10
  %35 = load ptr, ptr %34, align 8, !tbaa !57
  %36 = getelementptr inbounds nuw %struct.buf_mem_st, ptr %35, i32 0, i32 1
  %37 = load ptr, ptr %36, align 8, !tbaa !58
  %38 = load ptr, ptr %4, align 8, !tbaa !6
  %39 = getelementptr inbounds nuw %struct.hm_fragment_st, ptr %38, i32 0, i32 1
  %40 = load ptr, ptr %39, align 8, !tbaa !11
  %41 = load ptr, ptr %4, align 8, !tbaa !6
  %42 = getelementptr inbounds nuw %struct.hm_fragment_st, ptr %41, i32 0, i32 0
  %43 = getelementptr inbounds nuw %struct.hm_header_st, ptr %42, i32 0, i32 1
  %44 = load i32, ptr %43, align 4, !tbaa !91
  %45 = add i32 %44, 12
  %46 = zext i32 %45 to i64
  call void @llvm.memcpy.p0.p0.i64(ptr align 1 %37, ptr align 1 %40, i64 %46, i1 false)
  %47 = load ptr, ptr %4, align 8, !tbaa !6
  %48 = getelementptr inbounds nuw %struct.hm_fragment_st, ptr %47, i32 0, i32 0
  %49 = getelementptr inbounds nuw %struct.hm_header_st, ptr %48, i32 0, i32 1
  %50 = load i32, ptr %49, align 4, !tbaa !91
  %51 = add i32 %50, 12
  %52 = load ptr, ptr %3, align 8, !tbaa !18
  %53 = getelementptr inbounds nuw %struct.ssl_st, ptr %52, i32 0, i32 12
  store i32 %51, ptr %53, align 8, !tbaa !51
  %54 = load ptr, ptr %3, align 8, !tbaa !18
  %55 = load ptr, ptr %4, align 8, !tbaa !6
  %56 = getelementptr inbounds nuw %struct.hm_fragment_st, ptr %55, i32 0, i32 0
  %57 = getelementptr inbounds nuw %struct.hm_header_st, ptr %56, i32 0, i32 0
  %58 = load i8, ptr %57, align 8, !tbaa !93
  %59 = load ptr, ptr %4, align 8, !tbaa !6
  %60 = getelementptr inbounds nuw %struct.hm_fragment_st, ptr %59, i32 0, i32 0
  %61 = getelementptr inbounds nuw %struct.hm_header_st, ptr %60, i32 0, i32 1
  %62 = load i32, ptr %61, align 4, !tbaa !91
  %63 = zext i32 %62 to i64
  %64 = load ptr, ptr %4, align 8, !tbaa !6
  %65 = getelementptr inbounds nuw %struct.hm_fragment_st, ptr %64, i32 0, i32 0
  %66 = getelementptr inbounds nuw %struct.hm_header_st, ptr %65, i32 0, i32 2
  %67 = load i16, ptr %66, align 8, !tbaa !94
  %68 = load ptr, ptr %4, align 8, !tbaa !6
  %69 = getelementptr inbounds nuw %struct.hm_fragment_st, ptr %68, i32 0, i32 0
  %70 = getelementptr inbounds nuw %struct.hm_header_st, ptr %69, i32 0, i32 4
  %71 = load i32, ptr %70, align 8, !tbaa !108
  %72 = zext i32 %71 to i64
  call void @dtls1_set_message_header(ptr noundef %54, i8 noundef zeroext %58, i64 noundef %63, i16 noundef zeroext %67, i64 noundef 0, i64 noundef %72)
  %73 = load ptr, ptr %3, align 8, !tbaa !18
  %74 = load i32, ptr %5, align 4, !tbaa !20
  %75 = call i32 @dtls1_do_handshake_write(ptr noundef %73, i32 noundef %74)
  store i32 %75, ptr %6, align 4, !tbaa !20
  br label %76

76:                                               ; preds = %32, %28
  %77 = load ptr, ptr %3, align 8, !tbaa !18
  %78 = call ptr @SSL_get_wbio(ptr noundef %77)
  %79 = call i32 @BIO_flush(ptr noundef %78)
  %80 = load i32, ptr %6, align 4, !tbaa !20
  call void @llvm.lifetime.end.p0(i64 4, ptr %6) #8
  call void @llvm.lifetime.end.p0(i64 4, ptr %5) #8
  ret i32 %80
}

; Function Attrs: nounwind uwtable
define hidden i32 @dtls1_retransmit_buffered_messages(ptr noundef %0) #0 {
  %2 = alloca i32, align 4
  %3 = alloca ptr, align 8
  %4 = alloca ptr, align 8
  %5 = alloca ptr, align 8
  %6 = alloca ptr, align 8
  %7 = alloca ptr, align 8
  %8 = alloca i32, align 4
  store ptr %0, ptr %3, align 8, !tbaa !18
  call void @llvm.lifetime.start.p0(i64 8, ptr %4) #8
  %9 = load ptr, ptr %3, align 8, !tbaa !18
  %10 = getelementptr inbounds nuw %struct.ssl_st, ptr %9, i32 0, i32 15
  %11 = load ptr, ptr %10, align 8, !tbaa !21
  %12 = getelementptr inbounds nuw %struct.dtls1_state_st, ptr %11, i32 0, i32 11
  %13 = load ptr, ptr %12, align 8, !tbaa !102
  store ptr %13, ptr %4, align 8, !tbaa !103
  call void @llvm.lifetime.start.p0(i64 8, ptr %5) #8
  %14 = load ptr, ptr %4, align 8, !tbaa !103
  %15 = call ptr @pqueue_iterator(ptr noundef %14)
  store ptr %15, ptr %5, align 8, !tbaa !67
  call void @llvm.lifetime.start.p0(i64 8, ptr %6) #8
  %16 = call ptr @pqueue_next(ptr noundef %5)
  store ptr %16, ptr %6, align 8, !tbaa !67
  br label %17

17:                                               ; preds = %33, %1
  %18 = load ptr, ptr %6, align 8, !tbaa !67
  %19 = icmp ne ptr %18, null
  br i1 %19, label %20, label %35

20:                                               ; preds = %17
  call void @llvm.lifetime.start.p0(i64 8, ptr %7) #8
  %21 = load ptr, ptr %6, align 8, !tbaa !67
  %22 = getelementptr inbounds nuw %struct._pitem, ptr %21, i32 0, i32 1
  %23 = load ptr, ptr %22, align 8, !tbaa !89
  store ptr %23, ptr %7, align 8, !tbaa !6
  %24 = load ptr, ptr %3, align 8, !tbaa !18
  %25 = load ptr, ptr %7, align 8, !tbaa !6
  %26 = call i32 @dtls1_retransmit_message(ptr noundef %24, ptr noundef %25)
  %27 = icmp sle i32 %26, 0
  br i1 %27, label %28, label %29

28:                                               ; preds = %20
  store i32 -1, ptr %2, align 4
  store i32 1, ptr %8, align 4
  br label %30

29:                                               ; preds = %20
  store i32 0, ptr %8, align 4
  br label %30

30:                                               ; preds = %29, %28
  call void @llvm.lifetime.end.p0(i64 8, ptr %7) #8
  %31 = load i32, ptr %8, align 4
  switch i32 %31, label %36 [
    i32 0, label %32
  ]

32:                                               ; preds = %30
  br label %33

33:                                               ; preds = %32
  %34 = call ptr @pqueue_next(ptr noundef %5)
  store ptr %34, ptr %6, align 8, !tbaa !67
  br label %17, !llvm.loop !104

35:                                               ; preds = %17
  store i32 1, ptr %2, align 4
  store i32 1, ptr %8, align 4
  br label %36

36:                                               ; preds = %35, %30
  call void @llvm.lifetime.end.p0(i64 8, ptr %6) #8
  call void @llvm.lifetime.end.p0(i64 8, ptr %5) #8
  call void @llvm.lifetime.end.p0(i64 8, ptr %4) #8
  %37 = load i32, ptr %2, align 4
  ret i32 %37
}