; Function Attrs: nounwind uwtable
define hidden range(i32 -1, 2) i32 @dtls1_retransmit_buffered_messages(ptr noundef %0) local_unnamed_addr #2 {
  %2 = alloca ptr, align 8
  %3 = getelementptr inbounds nuw i8, ptr %0, i64 88
  %4 = load ptr, ptr %3, align 8, !tbaa !16
  %5 = getelementptr inbounds nuw i8, ptr %4, i64 320
  %6 = load ptr, ptr %5, align 8, !tbaa !93
  call void @llvm.lifetime.start.p0(i64 8, ptr nonnull %2) #13
  %7 = tail call ptr @pqueue_iterator(ptr noundef %6) #13
  store ptr %7, ptr %2, align 8, !tbaa !94
  %8 = call ptr @pqueue_next(ptr noundef nonnull %2) #13
  %.not9 = icmp eq ptr %8, null
  br i1 %.not9, label %._crit_edge, label %.lr.ph

.lr.ph:                                           ; preds = %1
  %9 = getelementptr inbounds nuw i8, ptr %0, i64 56
  %10 = getelementptr inbounds nuw i8, ptr %0, i64 72
  br label %11

11:                                               ; preds = %.lr.ph, %54
  %.0810 = phi ptr [ %8, %.lr.ph ], [ %55, %54 ]
  %12 = getelementptr inbounds nuw i8, ptr %.0810, i64 8
  %13 = load ptr, ptr %12, align 8, !tbaa !79
  %14 = load ptr, ptr %3, align 8, !tbaa !16
  %15 = getelementptr inbounds nuw i8, ptr %14, i64 274
  %16 = load i16, ptr %15, align 2, !tbaa !95
  %17 = icmp eq i16 %16, 1
  br i1 %17, label %18, label %22

18:                                               ; preds = %11
  %19 = getelementptr inbounds nuw i8, ptr %13, i64 24
  %20 = load i16, ptr %19, align 8, !tbaa !96
  %21 = icmp ne i16 %20, 0
  %spec.select.i = zext i1 %21 to i32
  br label %22

22:                                               ; preds = %18, %11
  %.018.i = phi i32 [ 1, %11 ], [ %spec.select.i, %18 ]
  %23 = getelementptr inbounds nuw i8, ptr %13, i64 20
  %24 = load i32, ptr %23, align 4, !tbaa !97
  %.not.i = icmp eq i32 %24, 0
  br i1 %.not.i, label %27, label %25

25:                                               ; preds = %22
  %26 = call fastcc i32 @dtls1_write_change_cipher_spec(ptr noundef nonnull %0, i32 noundef %.018.i)
  br label %dtls1_retransmit_message.exit

27:                                               ; preds = %22
  %28 = load ptr, ptr %9, align 8, !tbaa !50
  %29 = getelementptr inbounds nuw i8, ptr %28, i64 8
  %30 = load ptr, ptr %29, align 8, !tbaa !51
  %31 = getelementptr inbounds nuw i8, ptr %13, i64 32
  %32 = load ptr, ptr %31, align 8, !tbaa !6
  %33 = getelementptr inbounds nuw i8, ptr %13, i64 4
  %34 = load i32, ptr %33, align 4, !tbaa !89
  %35 = add i32 %34, 12
  %36 = zext i32 %35 to i64
  call void @llvm.memcpy.p0.p0.i64(ptr align 1 %30, ptr align 1 %32, i64 %36, i1 false)
  %37 = load i32, ptr %33, align 4, !tbaa !89
  %38 = add i32 %37, 12
  store i32 %38, ptr %10, align 8, !tbaa !45
  %39 = load i8, ptr %13, align 8, !tbaa !88
  %40 = getelementptr inbounds nuw i8, ptr %13, i64 8
  %41 = load i16, ptr %40, align 8, !tbaa !83
  %42 = getelementptr inbounds nuw i8, ptr %13, i64 16
  %43 = load i32, ptr %42, align 8, !tbaa !98
  %44 = load ptr, ptr %3, align 8, !tbaa !16
  %45 = getelementptr inbounds nuw i8, ptr %44, i64 332
  store i8 %39, ptr %45, align 4, !tbaa !99
  %46 = getelementptr inbounds nuw i8, ptr %44, i64 336
  store i32 %37, ptr %46, align 4, !tbaa !100
  %47 = getelementptr inbounds nuw i8, ptr %44, i64 340
  store i16 %41, ptr %47, align 4, !tbaa !101
  %48 = getelementptr inbounds nuw i8, ptr %44, i64 344
  store i32 0, ptr %48, align 4, !tbaa !102
  %49 = getelementptr inbounds nuw i8, ptr %44, i64 348
  store i32 %43, ptr %49, align 4, !tbaa !103
  %50 = call i32 @dtls1_do_handshake_write(ptr noundef nonnull %0, i32 noundef %.018.i)
  br label %dtls1_retransmit_message.exit

dtls1_retransmit_message.exit:                    ; preds = %25, %27
  %.0.i = phi i32 [ %26, %25 ], [ %50, %27 ]
  %51 = call ptr @SSL_get_wbio(ptr noundef nonnull %0) #13
  %52 = call i32 @BIO_flush(ptr noundef %51) #13
  %53 = icmp sgt i32 %.0.i, 0
  br i1 %53, label %54, label %._crit_edge

54:                                               ; preds = %dtls1_retransmit_message.exit
  %55 = call ptr @pqueue_next(ptr noundef nonnull %2) #13
  %.not = icmp eq ptr %55, null
  br i1 %.not, label %._crit_edge, label %11, !llvm.loop !104

._crit_edge:                                      ; preds = %dtls1_retransmit_message.exit, %54, %1
  %.2 = phi i32 [ 1, %1 ], [ 1, %54 ], [ -1, %dtls1_retransmit_message.exit ]
  call void @llvm.lifetime.end.p0(i64 8, ptr nonnull %2) #13
  ret i32 %.2
}